; Function Attrs: mustprogress nounwind uwtable
define void @_ZN3zmq22stream_listener_base_tD2Ev(ptr noundef nonnull align 8 dereferenceable(1520) initializes((0, 8), (1448, 1456)) %0) unnamed_addr #3 align 2 personality ptr @__gxx_personality_v0 {
  store ptr getelementptr inbounds nuw inrange(-16, 216) (i8, ptr @_ZTVN3zmq22stream_listener_base_tE, i64 16), ptr %0, align 8, !tbaa !3
  %2 = getelementptr inbounds nuw i8, ptr %0, i64 1448
  store ptr getelementptr inbounds nuw inrange(-16, 40) (i8, ptr @_ZTVN3zmq22stream_listener_base_tE, i64 248), ptr %2, align 8, !tbaa !3
  %3 = getelementptr inbounds nuw i8, ptr %0, i64 1464
  %4 = load i32, ptr %3, align 8, !tbaa !6
  %.not = icmp eq i32 %4, -1
  br i1 %.not, label %10, label %5, !prof !70

5:                                                ; preds = %1
  %6 = load ptr, ptr @stderr, align 8, !tbaa !71
  %7 = tail call i32 (ptr, ptr, ...) @fprintf(ptr noundef %6, ptr noundef nonnull @.str, ptr noundef nonnull @.str.1, ptr noundef nonnull @.str.2, i32 noundef 30) #19
  %8 = load ptr, ptr @stderr, align 8, !tbaa !71
  %9 = tail call i32 @fflush(ptr noundef %8)
  invoke void @_ZN3zmq9zmq_abortEPKc(ptr noundef nonnull @.str.1)
          to label %10 unwind label %26

10:                                               ; preds = %1, %5
  %11 = getelementptr inbounds nuw i8, ptr %0, i64 1472
  %12 = load ptr, ptr %11, align 8, !tbaa !65
  %.not1 = icmp eq ptr %12, null
  br i1 %.not1, label %18, label %13, !prof !70

13:                                               ; preds = %10
  %14 = load ptr, ptr @stderr, align 8, !tbaa !71
  %15 = tail call i32 (ptr, ptr, ...) @fprintf(ptr noundef %14, ptr noundef nonnull @.str, ptr noundef nonnull @.str.3, ptr noundef nonnull @.str.2, i32 noundef 31) #19
  %16 = load ptr, ptr @stderr, align 8, !tbaa !71
  %17 = tail call i32 @fflush(ptr noundef %16)
  invoke void @_ZN3zmq9zmq_abortEPKc(ptr noundef nonnull @.str.3)
          to label %18 unwind label %26

18:                                               ; preds = %13, %10
  %19 = getelementptr inbounds nuw i8, ptr %0, i64 1488
  %20 = load ptr, ptr %19, align 8, !tbaa !73
  %21 = getelementptr inbounds nuw i8, ptr %0, i64 1504
  %22 = icmp eq ptr %20, %21
  br i1 %22, label %_ZNKSt7__cxx1112basic_stringIcSt11char_traitsIcESaIcEE11_M_is_localEv.exit.thread.i.i, label %_ZNKSt7__cxx1112basic_stringIcSt11char_traitsIcESaIcEE11_M_is_localEv.exit.i.i

_ZNKSt7__cxx1112basic_stringIcSt11char_traitsIcESaIcEE11_M_is_localEv.exit.thread.i.i: ; preds = %18
  %23 = getelementptr inbounds nuw i8, ptr %0, i64 1496
  %24 = load i64, ptr %23, align 8, !tbaa !68
  %25 = icmp ult i64 %24, 16
  tail call void @llvm.assume(i1 %25)
  br label %_ZNSt7__cxx1112basic_stringIcSt11char_traitsIcESaIcEED2Ev.exit

_ZNKSt7__cxx1112basic_stringIcSt11char_traitsIcESaIcEE11_M_is_localEv.exit.i.i: ; preds = %18
  tail call void @_ZdlPv(ptr noundef %20) #20
  br label %_ZNSt7__cxx1112basic_stringIcSt11char_traitsIcESaIcEED2Ev.exit

_ZNSt7__cxx1112basic_stringIcSt11char_traitsIcESaIcEED2Ev.exit: ; preds = %_ZNKSt7__cxx1112basic_stringIcSt11char_traitsIcESaIcEE11_M_is_localEv.exit.thread.i.i, %_ZNKSt7__cxx1112basic_stringIcSt11char_traitsIcESaIcEE11_M_is_localEv.exit.i.i
  tail call void @_ZN3zmq11io_object_tD2Ev(ptr noundef nonnull align 8 dereferenceable(16) %2) #18
  tail call void @_ZN3zmq5own_tD2Ev(ptr noundef nonnull align 8 dereferenceable(1444) %0) #18
  ret void

26:                                               ; preds = %13, %5
  %27 = landingpad { ptr, i32 }
          catch ptr null
  %28 = extractvalue { ptr, i32 } %27, 0
  tail call void @__clang_call_terminate(ptr %28) #21
  unreachable
}